Certificate:
    Data:
        Version: 1 (0x0)
        Serial Number: 3 (0x3)
    Signature Algorithm: md5WithRSAEncryption
        Issuer: CN=00-ca_root, OU=ssh, O=hq
        Validity
            Not Before: Nov  9 10:06:52 2014 GMT
            Not After : Nov  8 10:06:52 2016 GMT
        Subject: CN=01-ca_int_user, OU=ssh, O=hq
        Subject Public Key Info:
            Public Key Algorithm: rsaEncryption
                Public-Key: (2048 bit)
                Modulus:
                    00:b2:16:13:c5:a4:84:ab:a1:53:c2:59:8b:80:4b:
                    25:a0:94:4a:7b:c6:b1:66:ec:08:6a:97:48:a6:f5:
                    dc:80:19:48:ce:47:d7:30:a7:fe:0a:a0:66:ab:3a:
                    5a:03:41:e3:37:8d:99:98:15:79:a7:70:8c:7a:71:
                    e1:97:52:1d:c1:fd:4b:d5:76:dd:d1:ce:59:fe:90:
                    2d:f4:98:46:a6:17:30:37:76:2c:b3:ca:e4:80:f6:
                    98:5e:92:68:56:d9:56:ae:b6:bc:91:41:48:69:e2:
                    8d:21:43:fc:c7:fe:68:3d:93:f2:76:a3:bf:ea:74:
                    29:e8:c9:6f:5e:70:e9:be:0e:93:bb:14:78:21:e6:
                    22:6b:f5:a0:4f:e8:84:45:05:a1:bf:e1:75:92:8b:
                    15:2d:ad:1c:9f:ce:67:83:ad:13:20:a8:34:0a:8e:
                    cc:56:91:35:0f:16:28:01:ee:7b:99:0a:d0:04:0b:
                    46:f6:f0:2a:56:b6:c1:03:74:d6:e4:ff:2a:0b:2d:
                    0c:4f:35:43:93:fb:da:9d:57:05:b8:9e:01:20:dd:
                    bf:c7:6d:7e:d5:49:5e:be:97:26:98:9d:e4:95:db:
                    ba:e7:5a:a0:67:9a:ac:87:88:14:61:37:08:46:2c:
                    b9:b9:fb:56:b7:59:30:5a:46:31:83:82:4b:ba:31:
                    7e:4b
                Exponent: 65537 (0x10001)
    Signature Algorithm: md5WithRSAEncryption
         44:1c:61:da:bb:eb:71:30:32:6e:43:99:7c:11:4d:c6:9d:e0:
         8a:46:d9:92:1f:fc:cf:33:38:5d:27:18:25:b2:de:d8:79:b6:
         fa:8c:ca:14:18:a0:50:d1:fe:f5:f0:64:54:6a:03:2a:35:6f:
         0a:06:1c:2c:38:fa:bb:2f:f2:bf:89:ee:7a:6c:44:08:4c:a9:
         74:71:ec:72:c8:86:64:20:25:f2:d5:0b:94:c3:80:06:37:66:
         3d:3b:8b:06:d8:75:bb:28:74:a7:b8:17:0b:f3:52:d2:05:52:
         05:69:2e:5e:6c:3c:db:83:ff:b7:04:9e:83:c2:ed:c3:8c:96:
         ac:95:66:29:ce:b4:2c:06:90:e7:23:c8:16:44:13:45:81:df:
         32:f8:88:03:e6:ad:9b:01:28:98:73:35:13:78:73:a3:1e:5e:
         f0:ae:61:57:0e:5e:f4:5b:25:a0:8f:c3:e0:c3:ea:3f:d4:b8:
         9d:de:89:c4:b0:67:ff:29:4d:8b:49:59:9f:cb:38:ea:9a:e1:
         aa:56:4e:c7:1e:ae:bd:1c:d3:03:5a:a8:02:61:6e:14:dd:3d:
         00:ad:5f:91:a4:2e:12:e5:2d:cb:57:d1:c2:9b:39:b0:c1:56:
         95:de:fa:32:b8:59:e3:2c:8d:3e:3a:98:14:81:c5:9e:c9:ff:
         ba:1b:da:b4
-----BEGIN CERTIFICATE-----
MIIC2DCCAcACAQMwDQYJKoZIhvcNAQEEBQAwMDETMBEGA1UEAwwKMDAtY2Ffcm9v
dDEMMAoGA1UECwwDc3NoMQswCQYDVQQKDAJocTAeFw0xNDExMDkxMDA2NTJaFw0x
NjExMDgxMDA2NTJaMDQxFzAVBgNVBAMMDjAxLWNhX2ludF91c2VyMQwwCgYDVQQL
DANzc2gxCzAJBgNVBAoMAmhxMIIBIjANBgkqhkiG9w0BAQEFAAOCAQ8AMIIBCgKC
AQEAshYTxaSEq6FTwlmLgEsloJRKe8axZuwIapdIpvXcgBlIzkfXMKf+CqBmqzpa
A0HjN42ZmBV5p3CMenHhl1Idwf1L1Xbd0c5Z/pAt9JhGphcwN3Yss8rkgPaYXpJo
VtlWrra8kUFIaeKNIUP8x/5oPZPydqO/6nQp6MlvXnDpvg6TuxR4IeYia/WgT+iE
RQWhv+F1kosVLa0cn85ng60TIKg0Co7MVpE1DxYoAe57mQrQBAtG9vAqVrbBA3TW
5P8qCy0MTzVDk/vanVcFuJ4BIN2/x21+1UlevpcmmJ3kldu651qgZ5qsh4gUYTcI
Riy5uftWt1kwWkYxg4JLujF+SwIDAQABMA0GCSqGSIb3DQEBBAUAA4IBAQBEHGHa
u+txMDJuQ5l8EU3GneCKRtmSH/zPMzhdJxglst7Yebb6jMoUGKBQ0f718GRUagMq
NW8KBhwsOPq7L/K/ie56bEQITKl0cexyyIZkICXy1QuUw4AGN2Y9O4sG2HW7KHSn
uBcL81LSBVIFaS5ebDzbg/+3BJ6Dwu3DjJaslWYpzrQsBpDnI8gWRBNFgd8y+IgD
5q2bASiYczUTeHOjHl7wrmFXDl70WyWgj8Pgw+o/1Lid3onEsGf/KU2LSVmfyzjq
muGqVk7HHq69HNMDWqgCYW4U3T0ArV+RpC4S5S3LV9HCmzmwwVaV3voyuFnjLI0+
OpgUgcWeyf+6G9q0
-----END CERTIFICATE-----
