Certificate:
    Data:
        Version: 1 (0x0)
        Serial Number: 5 (0x5)
    Signature Algorithm: md5WithRSAEncryption
        Issuer: CN=01-ca_int_user, OU=ssh, O=hq
        Validity
            Not Before: Nov  9 10:07:29 2014 GMT
            Not After : May  8 10:07:29 2015 GMT
        Subject: CN=10-ee_user_1, OU=ssh, O=hq
        Subject Public Key Info:
            Public Key Algorithm: rsaEncryption
                Public-Key: (2048 bit)
                Modulus:
                    00:e0:e3:45:d6:f9:26:f5:af:1c:67:31:04:8b:3c:
                    7c:35:0a:34:09:23:21:20:06:e6:bd:cc:db:19:58:
                    6a:0d:fa:20:e3:89:2d:7c:73:98:97:8c:4a:15:36:
                    28:74:10:23:47:5c:fb:9d:3b:5c:f8:c1:a0:4c:be:
                    0e:bc:d0:ff:7e:5f:4b:b9:d0:8f:56:8c:31:ef:e5:
                    2e:58:f1:84:0e:11:e1:01:5f:81:40:58:14:04:b6:
                    e1:53:26:54:d0:8d:97:25:b7:cf:21:dd:ba:ac:48:
                    b2:b5:8c:4c:dd:82:d8:ff:9e:73:3e:e4:03:5c:5e:
                    9c:44:fd:15:e6:12:96:e9:96:b1:8f:94:48:99:59:
                    52:1b:fb:b3:2c:9f:78:f4:be:17:6d:89:e7:af:a9:
                    8a:1a:5e:f5:18:88:1b:2c:2f:66:fd:14:ff:aa:a1:
                    ba:e8:e9:d1:f0:40:9f:ea:a4:ca:13:f8:1e:8b:9e:
                    ba:80:f3:67:cd:54:50:fe:49:a0:7f:34:b3:a1:97:
                    6f:25:28:77:0d:db:66:ee:6b:10:e5:24:58:2f:b7:
                    9a:26:0b:ce:18:40:4c:d5:10:74:3e:75:4b:fc:15:
                    fd:2c:9c:e0:f3:8b:1f:53:0f:05:a8:01:11:45:98:
                    60:47:84:27:1a:36:13:bc:ae:4a:82:9a:ef:49:d0:
                    f7:4b
                Exponent: 65537 (0x10001)
    Signature Algorithm: md5WithRSAEncryption
         02:fe:b2:5d:21:fe:e8:91:7b:9f:bf:e7:bf:ca:dc:6d:d3:96:
         4d:7b:53:e6:09:61:64:4c:c7:46:b1:3f:f4:ac:67:14:3e:77:
         42:66:e1:38:78:3b:9c:e9:29:60:13:25:0b:7f:df:23:01:24:
         e2:2a:64:be:a9:e9:9d:96:26:c0:05:ea:e9:d7:59:34:84:c3:
         96:44:ca:a3:ee:f0:01:e6:c9:11:21:42:b1:27:b4:52:cc:21:
         7d:02:b4:9a:fb:92:e8:5c:95:78:93:d6:f4:2f:6a:d4:1b:52:
         d6:ad:cb:51:79:b2:8c:0d:c7:5c:20:1c:18:b8:e8:f2:c4:c1:
         67:eb:5c:77:fe:31:b0:1b:84:e6:c9:bc:e2:22:34:11:a1:98:
         f6:10:71:13:b7:0b:2a:78:4d:76:2c:ae:c8:85:ab:f1:64:f0:
         33:ca:98:ca:2f:1f:9c:d3:76:e3:e0:1a:48:c1:95:ff:76:06:
         98:6e:e5:ef:1b:e3:38:4b:31:ac:d2:d1:74:65:4e:f5:e4:ab:
         71:e7:54:c1:8d:bf:9f:a5:ca:e1:8b:92:a7:84:b0:1f:5f:56:
         c6:20:9b:df:dd:c5:77:d7:57:88:a2:e8:5f:21:93:d7:01:c2:
         8a:11:cd:f3:ce:33:73:81:f0:dc:2d:5e:fd:4e:c4:11:f4:79:
         56:89:68:84
-----BEGIN CERTIFICATE-----
MIIC2jCCAcICAQUwDQYJKoZIhvcNAQEEBQAwNDEXMBUGA1UEAwwOMDEtY2FfaW50
X3VzZXIxDDAKBgNVBAsMA3NzaDELMAkGA1UECgwCaHEwHhcNMTQxMTA5MTAwNzI5
WhcNMTUwNTA4MTAwNzI5WjAyMRUwEwYDVQQDDAwxMC1lZV91c2VyXzExDDAKBgNV
BAsMA3NzaDELMAkGA1UECgwCaHEwggEiMA0GCSqGSIb3DQEBAQUAA4IBDwAwggEK
AoIBAQDg40XW+Sb1rxxnMQSLPHw1CjQJIyEgBua9zNsZWGoN+iDjiS18c5iXjEoV
Nih0ECNHXPudO1z4waBMvg680P9+X0u50I9WjDHv5S5Y8YQOEeEBX4FAWBQEtuFT
JlTQjZclt88h3bqsSLK1jEzdgtj/nnM+5ANcXpxE/RXmEpbplrGPlEiZWVIb+7Ms
n3j0vhdtieevqYoaXvUYiBssL2b9FP+qobro6dHwQJ/qpMoT+B6LnrqA82fNVFD+
SaB/NLOhl28lKHcN22buaxDlJFgvt5omC84YQEzVEHQ+dUv8Ff0snODzix9TDwWo
ARFFmGBHhCcaNhO8rkqCmu9J0PdLAgMBAAEwDQYJKoZIhvcNAQEEBQADggEBAAL+
sl0h/uiRe5+/57/K3G3Tlk17U+YJYWRMx0axP/SsZxQ+d0Jm4Th4O5zpKWATJQt/
3yMBJOIqZL6p6Z2WJsAF6unXWTSEw5ZEyqPu8AHmyREhQrEntFLMIX0CtJr7kuhc
lXiT1vQvatQbUtaty1F5sowNx1wgHBi46PLEwWfrXHf+MbAbhObJvOIiNBGhmPYQ
cRO3Cyp4TXYsrsiFq/Fk8DPKmMovH5zTduPgGkjBlf92Bphu5e8b4zhLMazS0XRl
TvXkq3HnVMGNv5+lyuGLkqeEsB9fVsYgm9/dxXfXV4ii6F8hk9cBwooRzfPOM3OB
8NwtXv1OxBH0eVaJaIQ=
-----END CERTIFICATE-----
